; ModuleID = '28/710.c'
source_filename = "28/710.c"
target datalayout = "e-m:e-p270:32:32-p271:32:32-p272:64:64-i64:64-f80:128-n8:16:32:64-S128"
target triple = "x86_64-pc-linux-gnu"

@.str = private unnamed_addr constant [3 x i8] c"%d\00", align 1
@.str.1 = private unnamed_addr constant [4 x i8] c",%d\00", align 1

; Function Attrs: noinline nounwind uwtable
define dso_local void @main() #0 {
  %1 = alloca [3000 x i8], align 16
  %2 = alloca i32, align 4
  %3 = alloca i32, align 4
  %4 = alloca i32, align 4
  %5 = alloca i32, align 4
  %6 = alloca [100 x i32], align 16
  %7 = getelementptr inbounds [3000 x i8], [3000 x i8]* %1, i64 0, i64 0
  %8 = call i32 (i8*, ...) bitcast (i32 (...)* @gets to i32 (i8*, ...)*)(i8* %7)
  %9 = getelementptr inbounds [3000 x i8], [3000 x i8]* %1, i64 0, i64 0
  %10 = call i64 @strlen(i8* %9) #3
  %11 = trunc i64 %10 to i32
  store i32 %11, i32* %4, align 4
  %12 = load i32, i32* %4, align 4
  %13 = sext i32 %12 to i64
  %14 = getelementptr inbounds [3000 x i8], [3000 x i8]* %1, i64 0, i64 %13
  store i8 32, i8* %14, align 1
  store i32 1, i32* %3, align 4
  store i32 0, i32* %2, align 4
  br label %15

15:                                               ; preds = %34, %0
  %16 = load i32, i32* %2, align 4
  %17 = load i32, i32* %4, align 4
  %18 = icmp sle i32 %16, %17
  br i1 %18, label %19, label %37

19:                                               ; preds = %15
  %20 = load i32, i32* %2, align 4
  %21 = sext i32 %20 to i64
  %22 = getelementptr inbounds [3000 x i8], [3000 x i8]* %1, i64 0, i64 %21
  %23 = load i8, i8* %22, align 1
  %24 = sext i8 %23 to i32
  %25 = icmp eq i32 %24, 32
  br i1 %25, label %26, label %33

26:                                               ; preds = %19
  %27 = load i32, i32* %2, align 4
  %28 = load i32, i32* %3, align 4
  %29 = sext i32 %28 to i64
  %30 = getelementptr inbounds [100 x i32], [100 x i32]* %6, i64 0, i64 %29
  store i32 %27, i32* %30, align 4
  %31 = load i32, i32* %3, align 4
  %32 = add nsw i32 %31, 1
  store i32 %32, i32* %3, align 4
  br label %33

33:                                               ; preds = %26, %19
  br label %34

34:                                               ; preds = %33
  %35 = load i32, i32* %2, align 4
  %36 = add nsw i32 %35, 1
  store i32 %36, i32* %2, align 4
  br label %15

37:                                               ; preds = %15
  %38 = getelementptr inbounds [100 x i32], [100 x i32]* %6, i64 0, i64 1
  %39 = load i32, i32* %38, align 4
  %40 = call i32 (i8*, ...) @printf(i8* getelementptr inbounds ([3 x i8], [3 x i8]* @.str, i64 0, i64 0), i32 %39)
  store i32 2, i32* %2, align 4
  br label %41

41:                                               ; preds = %63, %37
  %42 = load i32, i32* %2, align 4
  %43 = load i32, i32* %3, align 4
  %44 = icmp slt i32 %42, %43
  br i1 %44, label %45, label %66

45:                                               ; preds = %41
  %46 = load i32, i32* %2, align 4
  %47 = sext i32 %46 to i64
  %48 = getelementptr inbounds [100 x i32], [100 x i32]* %6, i64 0, i64 %47
  %49 = load i32, i32* %48, align 4
  %50 = load i32, i32* %2, align 4
  %51 = sub nsw i32 %50, 1
  %52 = sext i32 %51 to i64
  %53 = getelementptr inbounds [100 x i32], [100 x i32]* %6, i64 0, i64 %52
  %54 = load i32, i32* %53, align 4
  %55 = sub nsw i32 %49, %54
  %56 = sub nsw i32 %55, 1
  store i32 %56, i32* %5, align 4
  %57 = load i32, i32* %5, align 4
  %58 = icmp ne i32 %57, 0
  br i1 %58, label %59, label %62

59:                                               ; preds = %45
  %60 = load i32, i32* %5, align 4
  %61 = call i32 (i8*, ...) @printf(i8* getelementptr inbounds ([4 x i8], [4 x i8]* @.str.1, i64 0, i64 0), i32 %60)
  br label %62

62:                                               ; preds = %59, %45
  br label %63

63:                                               ; preds = %62
  %64 = load i32, i32* %2, align 4
  %65 = add nsw i32 %64, 1
  store i32 %65, i32* %2, align 4
  br label %41

66:                                               ; preds = %41
  ret void
}

declare dso_local i32 @gets(...) #1

; Function Attrs: nounwind readonly
declare dso_local i64 @strlen(i8*) #2

declare dso_local i32 @printf(i8*, ...) #1


!llvm.module.flags = !{!0}
!llvm.ident = !{!1}

!0 = !{i32 1, !"wchar_size", i32 4}
!1 = !{!"clang version 10.0.0-4ubuntu1 "}
